Certificate:
    Data:
        Version: 3 (0x2)
        Serial Number: 8 (0x8)
        Signature Algorithm: sha256WithRSAEncryption
        Issuer: C=US, O=Google, OU=Enterprise, CN=Single Root CA
        Validity
            Not Before: Oct 15 02:02:49 2025 GMT
            Not After : Oct 15 02:02:49 2035 GMT
        Subject: C=US, O=Google, OU=Enterprise, CN=server.domain.com
        Subject Public Key Info:
            Public Key Algorithm: rsaEncryption
                Public-Key: (2048 bit)
                Modulus:
                    00:f7:09:6f:63:27:14:a6:7f:23:f2:53:6c:96:7c:
                    88:f2:ff:7d:e7:59:88:66:72:86:34:f3:e2:02:f4:
                    2c:b9:e6:97:73:81:b4:bc:a4:08:53:13:14:7b:b9:
                    c8:ac:45:c0:6e:55:3e:31:1d:77:45:06:fa:9d:dc:
                    05:1f:fa:bd:a5:94:f4:1c:88:51:df:16:26:48:a1:
                    d0:69:ce:09:ce:c6:9c:77:37:1c:86:e7:b5:af:14:
                    7d:11:25:16:d4:fa:c5:d5:63:af:24:5a:a9:93:28:
                    00:32:1d:b3:c9:1b:20:ef:79:0f:e3:04:f6:96:6b:
                    b6:ac:f0:f0:ba:8e:5f:90:90:c4:28:82:bd:ac:75:
                    ab:66:42:29:0f:94:d2:2a:9c:15:2b:ea:d1:33:3e:
                    48:a7:42:b1:79:bd:3c:cd:2a:4e:c3:c7:01:d0:0f:
                    be:0a:96:e2:03:6c:3b:f0:c6:20:c8:98:19:72:8c:
                    49:f5:dd:ac:5c:b1:07:69:a8:8c:a7:e3:4a:6c:38:
                    b4:29:41:db:7e:3c:35:f7:19:0c:40:34:23:2d:be:
                    69:00:4b:65:4b:50:f0:93:7c:e2:b3:ee:7b:0c:88:
                    79:9b:30:dc:2b:6a:9c:ae:08:5d:cb:7c:98:9a:3e:
                    c8:b5:7d:4d:03:bc:28:ba:eb:d5:11:05:f9:c2:52:
                    3b:a1
                Exponent: 65537 (0x10001)
        X509v3 extensions:
            X509v3 Key Usage: critical
                Digital Signature
            X509v3 Basic Constraints: 
                CA:FALSE
            X509v3 Extended Key Usage: 
                TLS Web Server Authentication
            X509v3 Subject Key Identifier: 
                DA:BC:01:95:A7:59:26:55:0A:CB:C6:00:19:8B:F2:55:06:4C:A9:25
            X509v3 Authority Key Identifier: 
                D2:8C:6F:F6:B3:15:F0:72:70:3B:F9:18:C9:E2:9B:35:29:A6:5D:34
            Authority Information Access: 
                CA Issuers - URI:http://pki.esodemoapp2.com/ca/root-ca.cer
            X509v3 CRL Distribution Points: 
                Full Name:
                  URI:http://pki.esodemoapp2.com/ca/root-ca.crl

            X509v3 Subject Alternative Name: 
                DNS:localhost
    Signature Algorithm: sha256WithRSAEncryption
    Signature Value:
        9b:9b:de:84:13:ce:b0:de:78:4c:b3:c3:f4:61:6c:4f:92:27:
        44:83:d6:50:1a:59:62:20:18:b0:e7:68:0f:90:8c:b4:06:f7:
        9f:77:7e:fb:81:0c:92:f3:a3:a2:6c:77:68:7a:7f:24:d3:41:
        3b:0f:87:29:e5:be:f3:8c:d3:30:bb:b4:bc:e2:c1:e1:6c:3a:
        37:60:7e:0f:3b:bb:c9:b9:b2:a7:5a:cf:94:d4:b1:46:e6:f2:
        f8:6e:f6:1c:8b:71:cf:3c:7f:31:3a:a5:95:e7:b6:68:75:be:
        96:a0:37:e9:2c:b4:b9:e8:47:3a:09:66:a4:cd:37:a7:55:a8:
        d4:92:94:03:55:61:f5:53:82:df:66:ef:8a:07:6d:be:2a:44:
        f3:10:58:e9:ee:2f:e5:cb:b5:a7:7d:3b:80:d5:3b:3c:0e:3b:
        96:44:73:86:69:c6:61:25:ab:e0:cb:00:f4:6e:b4:b1:64:4f:
        aa:f0:13:b6:96:ef:b6:93:6b:84:1d:4c:70:56:54:d4:fa:80:
        74:f8:61:93:bc:75:71:a3:a3:54:5b:f0:ed:99:7d:d1:c1:f6:
        9d:31:18:dc:76:78:9a:12:56:f9:c9:1a:69:3d:4a:c6:e0:96:
        6b:67:9e:35:b2:3d:4d:c1:53:89:56:6e:51:8d:ac:9f:31:e6:
        e6:57:2a:1d
-----BEGIN CERTIFICATE-----
MIIEJTCCAw2gAwIBAgIBCDANBgkqhkiG9w0BAQsFADBMMQswCQYDVQQGEwJVUzEP
MA0GA1UECgwGR29vZ2xlMRMwEQYDVQQLDApFbnRlcnByaXNlMRcwFQYDVQQDDA5T
aW5nbGUgUm9vdCBDQTAeFw0yNTEwMTUwMjAyNDlaFw0zNTEwMTUwMjAyNDlaME8x
CzAJBgNVBAYTAlVTMQ8wDQYDVQQKDAZHb29nbGUxEzARBgNVBAsMCkVudGVycHJp
c2UxGjAYBgNVBAMMEXNlcnZlci5kb21haW4uY29tMIIBIjANBgkqhkiG9w0BAQEF
AAOCAQ8AMIIBCgKCAQEA9wlvYycUpn8j8lNslnyI8v9951mIZnKGNPPiAvQsueaX
c4G0vKQIUxMUe7nIrEXAblU+MR13RQb6ndwFH/q9pZT0HIhR3xYmSKHQac4Jzsac
dzcchue1rxR9ESUW1PrF1WOvJFqpkygAMh2zyRsg73kP4wT2lmu2rPDwuo5fkJDE
KIK9rHWrZkIpD5TSKpwVK+rRMz5Ip0Kxeb08zSpOw8cB0A++CpbiA2w78MYgyJgZ
coxJ9d2sXLEHaaiMp+NKbDi0KUHbfjw19xkMQDQjLb5pAEtlS1Dwk3zis+57DIh5
mzDcK2qcrghdy3yYmj7ItX1NA7wouuvVEQX5wlI7oQIDAQABo4IBDTCCAQkwDgYD
VR0PAQH/BAQDAgeAMAkGA1UdEwQCMAAwEwYDVR0lBAwwCgYIKwYBBQUHAwEwHQYD
VR0OBBYEFNq8AZWnWSZVCsvGABmL8lUGTKklMB8GA1UdIwQYMBaAFNKMb/azFfBy
cDv5GMnimzUppl00MEUGCCsGAQUFBwEBBDkwNzA1BggrBgEFBQcwAoYpaHR0cDov
L3BraS5lc29kZW1vYXBwMi5jb20vY2Evcm9vdC1jYS5jZXIwOgYDVR0fBDMwMTAv
oC2gK4YpaHR0cDovL3BraS5lc29kZW1vYXBwMi5jb20vY2Evcm9vdC1jYS5jcmww
FAYDVR0RBA0wC4IJbG9jYWxob3N0MA0GCSqGSIb3DQEBCwUAA4IBAQCbm96EE86w
3nhMs8P0YWxPkidEg9ZQGlliIBiw52gPkIy0Bvefd377gQyS86OibHdoen8k00E7
D4cp5b7zjNMwu7S84sHhbDo3YH4PO7vJubKnWs+U1LFG5vL4bvYci3HPPH8xOqWV
57Zodb6WoDfpLLS56Ec6CWakzTenVajUkpQDVWH1U4LfZu+KB22+KkTzEFjp7i/l
y7WnfTuA1Ts8DjuWRHOGacZhJavgywD0brSxZE+q8BO2lu+2k2uEHUxwVlTU+oB0
+GGTvHVxo6NUW/DtmX3RwfadMRjcdniaElb5yRppPUrG4JZrZ541sj1NwVOJVm5R
jayfMebmVyod
-----END CERTIFICATE-----
